target datalayout = "e-m:e-p270:32:32-p271:32:32-p272:64:64-i64:64-i128:128-f80:128-n8:16:32:64-S128"
target triple = "x86_64-pc-linux-gnu"

%"struct.(anonymous namespace)::FoldingSetNodeIDBuilder" = type { ptr }
%"class.llvm::itanium_demangle::Node.base" = type <{ ptr, i8, i16 }>
%"struct.(anonymous namespace)::ProfileNode" = type { ptr }
%"class.llvm::itanium_demangle::Node" = type <{ ptr, i8, i16, [5 x i8] }>
%"struct.(anonymous namespace)::ProfileSpecificNode.75" = type { ptr }
%"class.llvm::itanium_demangle::ArraySubscriptExpr" = type { %"class.llvm::itanium_demangle::Node.base", ptr, ptr }

; Function Attrs: mustprogress nounwind uwtable
define linkonce_odr hidden void @_ZN4llvm16FoldingSetNodeID10AddIntegerEm(ptr noundef nonnull align 8 dereferenceable(144) %0, i64 noundef %1) #0 comdat align 2 {
  %3 = alloca ptr, align 8
  %4 = alloca i64, align 8
  store ptr %0, ptr %3, align 8
  store i64 %1, ptr %4, align 8
  %5 = load ptr, ptr %3, align 8
  %6 = load i64, ptr %4, align 8
  call void @_ZN4llvm16FoldingSetNodeID10AddIntegerEy(ptr noundef nonnull align 8 dereferenceable(144) %5, i64 noundef %6)
  ret void
}

; Function Attrs: mustprogress nounwind uwtable
define linkonce_odr hidden void @_ZN4llvm16FoldingSetNodeID10AddPointerEPKv(ptr noundef nonnull align 8 dereferenceable(144) %0, ptr noundef %1) #0 comdat align 2 {
  %3 = alloca ptr, align 8
  %4 = alloca ptr, align 8
  store ptr %0, ptr %3, align 8
  store ptr %1, ptr %4, align 8
  %5 = load ptr, ptr %3, align 8
  %6 = load ptr, ptr %4, align 8
  %7 = ptrtoint ptr %6 to i64
  call void @_ZN4llvm16FoldingSetNodeID10AddIntegerEm(ptr noundef nonnull align 8 dereferenceable(144) %5, i64 noundef %7)
  ret void
}

; Function Attrs: mustprogress nounwind uwtable
define internal void @_ZN12_GLOBAL__N_123FoldingSetNodeIDBuilderclIN4llvm16itanium_demangle4Node4PrecEEENSt9enable_ifIXoosr3stdE13is_integral_vIT_Esr3stdE9is_enum_vIS7_EEvE4typeES7_(ptr noundef nonnull align 8 dereferenceable(8) %0, i32 noundef %1) #0 align 2 {
  %3 = alloca ptr, align 8
  %4 = alloca i32, align 4
  store ptr %0, ptr %3, align 8
  store i32 %1, ptr %4, align 4
  %5 = load ptr, ptr %3, align 8
  %6 = getelementptr inbounds nuw %"struct.(anonymous namespace)::FoldingSetNodeIDBuilder", ptr %5, i32 0, i32 0
  %7 = load ptr, ptr %6, align 8
  %8 = load i32, ptr %4, align 4
  %9 = sext i32 %8 to i64
  call void @_ZN4llvm16FoldingSetNodeID10AddIntegerEy(ptr noundef nonnull align 8 dereferenceable(144) %7, i64 noundef %9)
  ret void
}

; Function Attrs: mustprogress nounwind uwtable
define internal void @_ZN12_GLOBAL__N_123FoldingSetNodeIDBuilderclEPKN4llvm16itanium_demangle4NodeE(ptr noundef nonnull align 8 dereferenceable(8) %0, ptr noundef %1) #0 align 2 {
  %3 = alloca ptr, align 8
  %4 = alloca ptr, align 8
  store ptr %0, ptr %3, align 8
  store ptr %1, ptr %4, align 8
  %5 = load ptr, ptr %3, align 8
  %6 = getelementptr inbounds nuw %"struct.(anonymous namespace)::FoldingSetNodeIDBuilder", ptr %5, i32 0, i32 0
  %7 = load ptr, ptr %6, align 8
  %8 = load ptr, ptr %4, align 8
  call void @_ZN4llvm16FoldingSetNodeID10AddPointerEPKv(ptr noundef nonnull align 8 dereferenceable(144) %7, ptr noundef %8)
  ret void
}

; Function Attrs: mustprogress nounwind uwtable
define internal void @_ZN12_GLOBAL__N_123FoldingSetNodeIDBuilderclIN4llvm16itanium_demangle4Node4KindEEENSt9enable_ifIXoosr3stdE13is_integral_vIT_Esr3stdE9is_enum_vIS7_EEvE4typeES7_(ptr noundef nonnull align 8 dereferenceable(8) %0, i8 noundef zeroext %1) #0 align 2 {
  %3 = alloca ptr, align 8
  %4 = alloca i8, align 1
  store ptr %0, ptr %3, align 8
  store i8 %1, ptr %4, align 1
  %5 = load ptr, ptr %3, align 8
  %6 = getelementptr inbounds nuw %"struct.(anonymous namespace)::FoldingSetNodeIDBuilder", ptr %5, i32 0, i32 0
  %7 = load ptr, ptr %6, align 8
  %8 = load i8, ptr %4, align 1
  %9 = zext i8 %8 to i64
  call void @_ZN4llvm16FoldingSetNodeID10AddIntegerEy(ptr noundef nonnull align 8 dereferenceable(144) %7, i64 noundef %9)
  ret void
}

; Function Attrs: mustprogress nounwind uwtable
define internal void @_ZN12_GLOBAL__N_111profileCtorIJPKN4llvm16itanium_demangle4NodeES5_NS3_4PrecEEEEvRNS1_16FoldingSetNodeIDENS3_4KindEDpT_(ptr noundef nonnull align 8 dereferenceable(144) %0, i8 noundef zeroext %1, ptr noundef %2, ptr noundef %3, i32 noundef %4) #0 {
  %6 = alloca ptr, align 8
  %7 = alloca i8, align 1
  %8 = alloca ptr, align 8
  %9 = alloca ptr, align 8
  %10 = alloca i32, align 4
  %11 = alloca %"struct.(anonymous namespace)::FoldingSetNodeIDBuilder", align 8
  %12 = alloca [4 x i32], align 16
  store ptr %0, ptr %6, align 8
  store i8 %1, ptr %7, align 1
  store ptr %2, ptr %8, align 8
  store ptr %3, ptr %9, align 8
  store i32 %4, ptr %10, align 4
  %13 = getelementptr inbounds nuw %"struct.(anonymous namespace)::FoldingSetNodeIDBuilder", ptr %11, i32 0, i32 0
  %14 = load ptr, ptr %6, align 8
  store ptr %14, ptr %13, align 8
  %15 = load i8, ptr %7, align 1
  call void @_ZN12_GLOBAL__N_123FoldingSetNodeIDBuilderclIN4llvm16itanium_demangle4Node4KindEEENSt9enable_ifIXoosr3stdE13is_integral_vIT_Esr3stdE9is_enum_vIS7_EEvE4typeES7_(ptr noundef nonnull align 8 dereferenceable(8) %11, i8 noundef zeroext %15)
  %16 = load ptr, ptr %8, align 8
  call void @_ZN12_GLOBAL__N_123FoldingSetNodeIDBuilderclEPKN4llvm16itanium_demangle4NodeE(ptr noundef nonnull align 8 dereferenceable(8) %11, ptr noundef %16)
  store i32 0, ptr %12, align 4
  %17 = getelementptr inbounds i32, ptr %12, i64 1
  %18 = load ptr, ptr %9, align 8
  call void @_ZN12_GLOBAL__N_123FoldingSetNodeIDBuilderclEPKN4llvm16itanium_demangle4NodeE(ptr noundef nonnull align 8 dereferenceable(8) %11, ptr noundef %18)
  store i32 0, ptr %17, align 4
  %19 = getelementptr inbounds i32, ptr %12, i64 2
  %20 = load i32, ptr %10, align 4
  call void @_ZN12_GLOBAL__N_123FoldingSetNodeIDBuilderclIN4llvm16itanium_demangle4Node4PrecEEENSt9enable_ifIXoosr3stdE13is_integral_vIT_Esr3stdE9is_enum_vIS7_EEvE4typeES7_(ptr noundef nonnull align 8 dereferenceable(8) %11, i32 noundef %20)
  store i32 0, ptr %19, align 4
  %21 = getelementptr inbounds i32, ptr %12, i64 3
  store i32 0, ptr %21, align 4
  ret void
}

; Function Attrs: mustprogress nounwind uwtable
define internal void @_ZN12_GLOBAL__N_119ProfileSpecificNodeIN4llvm16itanium_demangle18ArraySubscriptExprEEclIJPKNS2_4NodeES8_NS6_4PrecEEEEvDpT_(ptr noundef nonnull align 8 dereferenceable(8) %0, ptr noundef %1, ptr noundef %2, i32 noundef %3) #0 align 2 {
  %5 = alloca ptr, align 8
  %6 = alloca ptr, align 8
  %7 = alloca ptr, align 8
  %8 = alloca i32, align 4
  store ptr %0, ptr %5, align 8
  store ptr %1, ptr %6, align 8
  store ptr %2, ptr %7, align 8
  store i32 %3, ptr %8, align 4
  %9 = load ptr, ptr %5, align 8
  %10 = getelementptr inbounds nuw %"struct.(anonymous namespace)::ProfileSpecificNode.75", ptr %9, i32 0, i32 0
  %11 = load ptr, ptr %10, align 8
  %12 = load ptr, ptr %6, align 8
  %13 = load ptr, ptr %7, align 8
  %14 = load i32, ptr %8, align 4
  call void @_ZN12_GLOBAL__N_111profileCtorIJPKN4llvm16itanium_demangle4NodeES5_NS3_4PrecEEEEvRNS1_16FoldingSetNodeIDENS3_4KindEDpT_(ptr noundef nonnull align 8 dereferenceable(144) %11, i8 noundef zeroext 55, ptr noundef %12, ptr noundef %13, i32 noundef %14)
  ret void
}

; Function Attrs: mustprogress nounwind uwtable
define linkonce_odr hidden noundef i32 @_ZNK4llvm16itanium_demangle4Node13getPrecedenceEv(ptr noundef nonnull align 8 dereferenceable(11) %0) #0 comdat align 2 {
  %2 = alloca ptr, align 8
  store ptr %0, ptr %2, align 8
  %3 = load ptr, ptr %2, align 8
  %4 = getelementptr inbounds nuw %"class.llvm::itanium_demangle::Node", ptr %3, i32 0, i32 2
  %5 = load i16, ptr %4, align 1
  %6 = shl i16 %5, 10
  %7 = ashr i16 %6, 10
  %8 = sext i16 %7 to i32
  ret i32 %8
}

; Function Attrs: mustprogress nounwind uwtable
define internal void @_ZNK4llvm16itanium_demangle18ArraySubscriptExpr5matchIN12_GLOBAL__N_119ProfileSpecificNodeIS1_EEEEvT_(ptr noundef nonnull align 8 dereferenceable(32) %0, ptr %1) #0 align 2 {
  %3 = alloca %"struct.(anonymous namespace)::ProfileSpecificNode.75", align 8
  %4 = alloca ptr, align 8
  %5 = getelementptr inbounds nuw %"struct.(anonymous namespace)::ProfileSpecificNode.75", ptr %3, i32 0, i32 0
  store ptr %1, ptr %5, align 8
  store ptr %0, ptr %4, align 8
  %6 = load ptr, ptr %4, align 8
  %7 = getelementptr inbounds nuw %"class.llvm::itanium_demangle::ArraySubscriptExpr", ptr %6, i32 0, i32 1
  %8 = load ptr, ptr %7, align 8
  %9 = getelementptr inbounds nuw %"class.llvm::itanium_demangle::ArraySubscriptExpr", ptr %6, i32 0, i32 2
  %10 = load ptr, ptr %9, align 8
  %11 = call noundef i32 @_ZNK4llvm16itanium_demangle4Node13getPrecedenceEv(ptr noundef nonnull align 8 dereferenceable(11) %6)
  call void @_ZN12_GLOBAL__N_119ProfileSpecificNodeIN4llvm16itanium_demangle18ArraySubscriptExprEEclIJPKNS2_4NodeES8_NS6_4PrecEEEEvDpT_(ptr noundef nonnull align 8 dereferenceable(8) %3, ptr noundef %8, ptr noundef %10, i32 noundef %11)
  ret void
}

; Function Attrs: mustprogress nounwind uwtable
define internal void @_ZN12_GLOBAL__N_111ProfileNodeclIN4llvm16itanium_demangle18ArraySubscriptExprEEEvPKT_(ptr noundef nonnull align 8 dereferenceable(8) %0, ptr noundef %1) #0 align 2 {
  %3 = alloca ptr, align 8
  %4 = alloca ptr, align 8
  %5 = alloca %"struct.(anonymous namespace)::ProfileSpecificNode.75", align 8
  store ptr %0, ptr %3, align 8
  store ptr %1, ptr %4, align 8
  %6 = load ptr, ptr %3, align 8
  %7 = load ptr, ptr %4, align 8
  %8 = getelementptr inbounds nuw %"struct.(anonymous namespace)::ProfileSpecificNode.75", ptr %5, i32 0, i32 0
  %9 = getelementptr inbounds nuw %"struct.(anonymous namespace)::ProfileNode", ptr %6, i32 0, i32 0
  %10 = load ptr, ptr %9, align 8
  store ptr %10, ptr %8, align 8
  %11 = getelementptr inbounds nuw %"struct.(anonymous namespace)::ProfileSpecificNode.75", ptr %5, i32 0, i32 0
  %12 = load ptr, ptr %11, align 8
  call void @_ZNK4llvm16itanium_demangle18ArraySubscriptExpr5matchIN12_GLOBAL__N_119ProfileSpecificNodeIS1_EEEEvT_(ptr noundef nonnull align 8 dereferenceable(32) %7, ptr %12)
  ret void
}